target datalayout = "e-m:e-p270:32:32-p271:32:32-p272:64:64-i64:64-i128:128-f80:128-n8:16:32:64-S128"
target triple = "x86_64-pc-linux-gnu"

%class.LIR_Opr = type { i64 }
%class.LIRGenerator = type { %class.InstructionVisitor, %class.BlockClosure, ptr, ptr, %class.PhiResolverState, ptr, i32, %class.BitMap2D, ptr, %class.GrowableArray.0, %class.GrowableArray.3, %class.GrowableArray.6, ptr }
%class.InstructionVisitor = type { ptr }
%class.BlockClosure = type { ptr }
%class.PhiResolverState = type { %class.GrowableArray, %class.GrowableArray, %class.GrowableArray }
%class.GrowableArray = type { %class.GrowableArrayWithAllocator, %class.GrowableArrayMetadata }
%class.GrowableArrayWithAllocator = type { %class.GrowableArrayView }
%class.GrowableArrayView = type { %class.GrowableArrayBase, ptr }
%class.GrowableArrayBase = type { i32, i32 }
%class.GrowableArrayMetadata = type { i64 }
%class.BitMap2D = type { %class.ResourceBitMap, i64 }
%class.ResourceBitMap = type { %class.GrowableBitMap }
%class.GrowableBitMap = type { %class.BitMap }
%class.BitMap = type { ptr, i64 }
%class.GrowableArray.0 = type { %class.GrowableArrayWithAllocator.1, %class.GrowableArrayMetadata }
%class.GrowableArrayWithAllocator.1 = type { %class.GrowableArrayView.2 }
%class.GrowableArrayView.2 = type { %class.GrowableArrayBase, ptr }
%class.GrowableArray.3 = type { %class.GrowableArrayWithAllocator.4, %class.GrowableArrayMetadata }
%class.GrowableArrayWithAllocator.4 = type { %class.GrowableArrayView.5 }
%class.GrowableArrayView.5 = type { %class.GrowableArrayBase, ptr }
%class.GrowableArray.6 = type { %class.GrowableArrayWithAllocator.7, %class.GrowableArrayMetadata }
%class.GrowableArrayWithAllocator.7 = type { %class.GrowableArrayView.8 }
%class.GrowableArrayView.8 = type { %class.GrowableArrayBase, ptr }
%class.Instruction = type { ptr, i32, i32, i32, ptr, ptr, ptr, %class.LIR_Opr, i32, ptr, ptr, ptr, ptr }
%class.ValueType = type { ptr, i32, i32 }
%class.StateSplit = type { %class.Instruction, ptr }
%class.NewInstance = type <{ %class.StateSplit, ptr, i8, [7 x i8] }>

@_ZN8FrameMap11rax_oop_oprE = external global %class.LIR_Opr, align 8
@_ZN8FrameMap7rax_oprE = external global %class.LIR_Opr, align 8
@_ZN11LIR_OprFact10illegalOprE = external global %class.LIR_Opr, align 8
@_ZN8FrameMap9long0_oprE = external global %class.LIR_Opr, align 8
@_ZN8FrameMap14xmm0_float_oprE = external global %class.LIR_Opr, align 8
@_ZN8FrameMap15xmm0_double_oprE = external global %class.LIR_Opr, align 8
@g_assert_poison = external global ptr, align 8
@.str = private unnamed_addr constant [44 x i8] c"src/hotspot/cpu/x86/c1_LIRGenerator_x86.cpp\00", align 1
@_ZN8FrameMap11rcx_oop_oprE = external global %class.LIR_Opr, align 8
@_ZN8FrameMap11rdi_oop_oprE = external global %class.LIR_Opr, align 8
@_ZN8FrameMap11rsi_oop_oprE = external global %class.LIR_Opr, align 8
@_ZN8FrameMap16rdx_metadata_oprE = external global %class.LIR_Opr, align 8

; Function Attrs: mustprogress nounwind uwtable
define linkonce_odr hidden noundef i32 @_ZNK9ValueType3tagEv(ptr noundef nonnull align 8 dereferenceable(16) %0) #1 comdat align 2 {
  %2 = alloca ptr, align 8
  store ptr %0, ptr %2, align 8
  %3 = load ptr, ptr %2, align 8
  %4 = getelementptr inbounds %class.ValueType, ptr %3, i32 0, i32 2
  %5 = load i32, ptr %4, align 4
  ret i32 %5
}

; Function Attrs: mustprogress nounwind uwtable
define linkonce_odr hidden void @_ZN7LIR_OprC2Ev(ptr noundef nonnull align 8 dereferenceable(8) %0) unnamed_addr #1 comdat align 2 {
  %2 = alloca ptr, align 8
  store ptr %0, ptr %2, align 8
  %3 = load ptr, ptr %2, align 8
  %4 = getelementptr inbounds %class.LIR_Opr, ptr %3, i32 0, i32 0
  store i64 0, ptr %4, align 8
  ret void
}

; Function Attrs: mustprogress nounwind uwtable
define linkonce_odr hidden noundef ptr @_ZNK12LIRGenerator3lirEv(ptr noundef nonnull align 8 dereferenceable(232) %0) #1 comdat align 2 {
  %2 = alloca ptr, align 8
  store ptr %0, ptr %2, align 8
  %3 = load ptr, ptr %2, align 8
  %4 = getelementptr inbounds %class.LIRGenerator, ptr %3, i32 0, i32 8
  %5 = load ptr, ptr %4, align 8
  ret ptr %5
}

; Function Attrs: mustprogress nounwind uwtable
define linkonce_odr hidden noundef ptr @_ZN12LIRGenerator3genEv(ptr noundef nonnull align 8 dereferenceable(232) %0) #1 comdat align 2 {
  %2 = alloca ptr, align 8
  store ptr %0, ptr %2, align 8
  %3 = load ptr, ptr %2, align 8
  ret ptr %3
}

; Function Attrs: mustprogress nounwind uwtable
define linkonce_odr hidden noundef zeroext i1 @_ZNK11NewInstance13is_unresolvedEv(ptr noundef nonnull align 8 dereferenceable(113) %0) #1 comdat align 2 {
  %2 = alloca ptr, align 8
  store ptr %0, ptr %2, align 8
  %3 = load ptr, ptr %2, align 8
  %4 = getelementptr inbounds %class.NewInstance, ptr %3, i32 0, i32 2
  %5 = load i8, ptr %4, align 8
  %6 = trunc i8 %5 to i1
  ret i1 %6
}

; Function Attrs: mustprogress nounwind uwtable
define linkonce_odr hidden noundef ptr @_ZNK11NewInstance5klassEv(ptr noundef nonnull align 8 dereferenceable(113) %0) #1 comdat align 2 {
  %2 = alloca ptr, align 8
  store ptr %0, ptr %2, align 8
  %3 = load ptr, ptr %2, align 8
  %4 = getelementptr inbounds %class.NewInstance, ptr %3, i32 0, i32 1
  %5 = load ptr, ptr %4, align 8
  ret ptr %5
}

; Function Attrs: mustprogress nounwind uwtable
define hidden i64 @_ZN12LIRGenerator19result_register_forEP9ValueTypeb(ptr noundef %0, i1 noundef zeroext %1) #1 align 2 {
  %3 = alloca %class.LIR_Opr, align 8
  %4 = alloca ptr, align 8
  %5 = alloca i8, align 1
  %6 = alloca %class.LIR_Opr, align 8
  store ptr %0, ptr %4, align 8
  %7 = zext i1 %1 to i8
  store i8 %7, ptr %5, align 1
  call void @_ZN7LIR_OprC2Ev(ptr noundef nonnull align 8 dereferenceable(8) %6)
  %8 = load ptr, ptr %4, align 8
  %9 = call noundef i32 @_ZNK9ValueType3tagEv(ptr noundef nonnull align 8 dereferenceable(16) %8)
  switch i32 %9, label %16 [
    i32 0, label %10
    i32 4, label %11
    i32 1, label %12
    i32 2, label %13
    i32 3, label %14
    i32 5, label %15
  ]

10:                                               ; preds = %2
  call void @llvm.memcpy.p0.p0.i64(ptr align 8 %6, ptr align 8 @_ZN8FrameMap7rax_oprE, i64 8, i1 false)
  br label %20

11:                                               ; preds = %2
  call void @llvm.memcpy.p0.p0.i64(ptr align 8 %6, ptr align 8 @_ZN8FrameMap11rax_oop_oprE, i64 8, i1 false)
  br label %20

12:                                               ; preds = %2
  call void @llvm.memcpy.p0.p0.i64(ptr align 8 %6, ptr align 8 @_ZN8FrameMap9long0_oprE, i64 8, i1 false)
  br label %20

13:                                               ; preds = %2
  call void @llvm.memcpy.p0.p0.i64(ptr align 8 %6, ptr align 8 @_ZN8FrameMap14xmm0_float_oprE, i64 8, i1 false)
  br label %20

14:                                               ; preds = %2
  call void @llvm.memcpy.p0.p0.i64(ptr align 8 %6, ptr align 8 @_ZN8FrameMap15xmm0_double_oprE, i64 8, i1 false)
  br label %20

15:                                               ; preds = %2
  br label %16

16:                                               ; preds = %15, %2
  br label %17

17:                                               ; preds = %16
  %18 = load ptr, ptr @g_assert_poison, align 8
  store i8 88, ptr %18, align 1
  call void @_Z28report_should_not_reach_herePKci(ptr noundef @.str, i32 noundef 104) #7
  unreachable

19:                                               ; No predecessors!
  call void @llvm.memcpy.p0.p0.i64(ptr align 8 %3, ptr align 8 @_ZN11LIR_OprFact10illegalOprE, i64 8, i1 false)
  br label %21

20:                                               ; preds = %14, %13, %12, %11, %10
  call void @llvm.memcpy.p0.p0.i64(ptr align 8 %3, ptr align 8 %6, i64 8, i1 false)
  br label %21

21:                                               ; preds = %20, %19
  %22 = getelementptr inbounds %class.LIR_Opr, ptr %3, i32 0, i32 0
  %23 = load i64, ptr %22, align 8
  ret i64 %23
}

; Function Attrs: mustprogress nounwind uwtable
define linkonce_odr hidden noundef ptr @_ZNK11Instruction4typeEv(ptr noundef nonnull align 8 dereferenceable(96) %0) #1 comdat align 2 {
  %2 = alloca ptr, align 8
  store ptr %0, ptr %2, align 8
  %3 = load ptr, ptr %2, align 8
  %4 = getelementptr inbounds %class.Instruction, ptr %3, i32 0, i32 4
  %5 = load ptr, ptr %4, align 8
  ret ptr %5
}

; Function Attrs: mustprogress nounwind uwtable
define linkonce_odr hidden noundef ptr @_ZNK10StateSplit5stateEv(ptr noundef nonnull align 8 dereferenceable(104) %0) #1 comdat align 2 {
  %2 = alloca ptr, align 8
  store ptr %0, ptr %2, align 8
  %3 = load ptr, ptr %2, align 8
  %4 = getelementptr inbounds %class.StateSplit, ptr %3, i32 0, i32 1
  %5 = load ptr, ptr %4, align 8
  ret ptr %5
}

; Function Attrs: mustprogress nounwind uwtable
define linkonce_odr hidden void @_ZN12LIRGenerator19print_if_not_loadedEPK11NewInstance(ptr noundef nonnull align 8 dereferenceable(232) %0, ptr noundef %1) #1 comdat align 2 {
  %3 = alloca ptr, align 8
  %4 = alloca ptr, align 8
  store ptr %0, ptr %3, align 8
  store ptr %1, ptr %4, align 8
  ret void
}

; Function Attrs: mustprogress nounwind uwtable
define hidden void @_ZN12LIRGenerator14do_NewInstanceEP11NewInstance(ptr noundef nonnull align 8 dereferenceable(232) %0, ptr noundef %1) unnamed_addr #1 align 2 {
  %3 = alloca ptr, align 8
  %4 = alloca ptr, align 8
  %5 = alloca ptr, align 8
  %6 = alloca %class.LIR_Opr, align 8
  %7 = alloca %class.LIR_Opr, align 8
  %8 = alloca %class.LIR_Opr, align 8
  %9 = alloca %class.LIR_Opr, align 8
  %10 = alloca %class.LIR_Opr, align 8
  %11 = alloca %class.LIR_Opr, align 8
  %12 = alloca %class.LIR_Opr, align 8
  %13 = alloca %class.LIR_Opr, align 8
  %14 = alloca %class.LIR_Opr, align 8
  %15 = alloca %class.LIR_Opr, align 8
  store ptr %0, ptr %3, align 8
  store ptr %1, ptr %4, align 8
  %16 = load ptr, ptr %3, align 8
  %17 = load ptr, ptr %4, align 8
  call void @_ZN12LIRGenerator19print_if_not_loadedEPK11NewInstance(ptr noundef nonnull align 8 dereferenceable(232) %16, ptr noundef %17)
  %18 = load ptr, ptr %4, align 8
  %19 = load ptr, ptr %4, align 8
  %20 = call noundef ptr @_ZNK10StateSplit5stateEv(ptr noundef nonnull align 8 dereferenceable(104) %19)
  %21 = call noundef ptr @_ZN12LIRGenerator9state_forEP11InstructionP10ValueStackb(ptr noundef nonnull align 8 dereferenceable(232) %16, ptr noundef %18, ptr noundef %20, i1 noundef zeroext false)
  store ptr %21, ptr %5, align 8
  %22 = load ptr, ptr %4, align 8
  %23 = call noundef ptr @_ZNK11Instruction4typeEv(ptr noundef nonnull align 8 dereferenceable(96) %22)
  %24 = call i64 @_ZN12LIRGenerator19result_register_forEP9ValueTypeb(ptr noundef %23, i1 noundef zeroext false)
  %25 = getelementptr inbounds %class.LIR_Opr, ptr %6, i32 0, i32 0
  store i64 %24, ptr %25, align 8
  call void @llvm.memcpy.p0.p0.i64(ptr align 8 %7, ptr align 8 %6, i64 8, i1 false)
  %26 = load ptr, ptr %4, align 8
  %27 = call noundef ptr @_ZNK11NewInstance5klassEv(ptr noundef nonnull align 8 dereferenceable(113) %26)
  %28 = load ptr, ptr %4, align 8
  %29 = call noundef zeroext i1 @_ZNK11NewInstance13is_unresolvedEv(ptr noundef nonnull align 8 dereferenceable(113) %28)
  call void @llvm.memcpy.p0.p0.i64(ptr align 8 %8, ptr align 8 @_ZN8FrameMap11rcx_oop_oprE, i64 8, i1 false)
  call void @llvm.memcpy.p0.p0.i64(ptr align 8 %9, ptr align 8 @_ZN8FrameMap11rdi_oop_oprE, i64 8, i1 false)
  call void @llvm.memcpy.p0.p0.i64(ptr align 8 %10, ptr align 8 @_ZN8FrameMap11rsi_oop_oprE, i64 8, i1 false)
  call void @llvm.memcpy.p0.p0.i64(ptr align 8 %11, ptr align 8 @_ZN11LIR_OprFact10illegalOprE, i64 8, i1 false)
  call void @llvm.memcpy.p0.p0.i64(ptr align 8 %12, ptr align 8 @_ZN8FrameMap16rdx_metadata_oprE, i64 8, i1 false)
  %30 = load ptr, ptr %5, align 8
  %31 = getelementptr inbounds %class.LIR_Opr, ptr %7, i32 0, i32 0
  %32 = load i64, ptr %31, align 8
  %33 = getelementptr inbounds %class.LIR_Opr, ptr %8, i32 0, i32 0
  %34 = load i64, ptr %33, align 8
  %35 = getelementptr inbounds %class.LIR_Opr, ptr %9, i32 0, i32 0
  %36 = load i64, ptr %35, align 8
  %37 = getelementptr inbounds %class.LIR_Opr, ptr %10, i32 0, i32 0
  %38 = load i64, ptr %37, align 8
  %39 = getelementptr inbounds %class.LIR_Opr, ptr %11, i32 0, i32 0
  %40 = load i64, ptr %39, align 8
  %41 = getelementptr inbounds %class.LIR_Opr, ptr %12, i32 0, i32 0
  %42 = load i64, ptr %41, align 8
  call void @_ZN12LIRGenerator12new_instanceE7LIR_OprP15ciInstanceKlassbS0_S0_S0_S0_S0_P12CodeEmitInfo(ptr noundef nonnull align 8 dereferenceable(232) %16, i64 %32, ptr noundef %27, i1 noundef zeroext %29, i64 %34, i64 %36, i64 %38, i64 %40, i64 %42, ptr noundef %30)
  %43 = load ptr, ptr %4, align 8
  %44 = call i64 @_ZN12LIRGenerator12rlock_resultEP11Instruction(ptr noundef nonnull align 8 dereferenceable(232) %16, ptr noundef %43)
  %45 = getelementptr inbounds %class.LIR_Opr, ptr %13, i32 0, i32 0
  store i64 %44, ptr %45, align 8
  %46 = call noundef ptr @_ZN12LIRGenerator3genEv(ptr noundef nonnull align 8 dereferenceable(232) %16)
  %47 = call noundef ptr @_ZNK12LIRGenerator3lirEv(ptr noundef nonnull align 8 dereferenceable(232) %46)
  call void @llvm.memcpy.p0.p0.i64(ptr align 8 %14, ptr align 8 %6, i64 8, i1 false)
  call void @llvm.memcpy.p0.p0.i64(ptr align 8 %15, ptr align 8 %13, i64 8, i1 false)
  %48 = getelementptr inbounds %class.LIR_Opr, ptr %14, i32 0, i32 0
  %49 = load i64, ptr %48, align 8
  %50 = getelementptr inbounds %class.LIR_Opr, ptr %15, i32 0, i32 0
  %51 = load i64, ptr %50, align 8
  call void @_ZN8LIR_List4moveE7LIR_OprS0_P12CodeEmitInfo(ptr noundef nonnull align 8 dereferenceable(32) %47, i64 %49, i64 %51, ptr noundef null)
  ret void
}