; Function Attrs: mustprogress nounwind uwtable
define hidden void @_ZN12LIRGenerator14do_NewInstanceEP11NewInstance(ptr noundef nonnull align 8 dereferenceable(232) %0, ptr noundef %1) unnamed_addr #0 align 2 {
  %3 = getelementptr inbounds i8, ptr %1, i64 96
  %4 = load ptr, ptr %3, align 8
  %5 = tail call noundef ptr @_ZN12LIRGenerator9state_forEP11InstructionP10ValueStackb(ptr noundef nonnull align 8 dereferenceable(232) %0, ptr noundef nonnull %1, ptr noundef %4, i1 noundef zeroext false) #9
  %6 = getelementptr inbounds i8, ptr %1, i64 24
  %7 = load ptr, ptr %6, align 8
  %8 = getelementptr inbounds i8, ptr %7, i64 12
  %9 = load i32, ptr %8, align 4
  %10 = icmp ult i32 %9, 5
  br i1 %10, label %switch.lookup, label %11

11:                                               ; preds = %2
  %12 = load ptr, ptr @g_assert_poison, align 8
  store i8 88, ptr %12, align 1
  tail call void @_Z28report_should_not_reach_herePKci(ptr noundef nonnull @.str, i32 noundef 104) #10
  unreachable

switch.lookup:                                    ; preds = %2
  %13 = zext nneg i32 %9 to i64
  %switch.gep = getelementptr inbounds [5 x ptr], ptr @switch.table._ZN12LIRGenerator16do_NewMultiArrayEP13NewMultiArray, i64 0, i64 %13
  %switch.load = load ptr, ptr %switch.gep, align 8
  %.sroa.0.0.i = load i64, ptr %switch.load, align 8
  %14 = getelementptr inbounds i8, ptr %1, i64 104
  %15 = load ptr, ptr %14, align 8
  %16 = getelementptr inbounds i8, ptr %1, i64 112
  %17 = load i8, ptr %16, align 8
  %18 = trunc i8 %17 to i1
  %.sroa.07.0.copyload = load i64, ptr @_ZN8FrameMap11rcx_oop_oprE, align 8
  %.sroa.06.0.copyload = load i64, ptr @_ZN8FrameMap11rdi_oop_oprE, align 8
  %.sroa.05.0.copyload = load i64, ptr @_ZN8FrameMap11rsi_oop_oprE, align 8
  %.sroa.04.0.copyload = load i64, ptr @_ZN11LIR_OprFact10illegalOprE, align 8
  %.sroa.03.0.copyload = load i64, ptr @_ZN8FrameMap16rdx_metadata_oprE, align 8
  tail call void @_ZN12LIRGenerator12new_instanceE7LIR_OprP15ciInstanceKlassbS0_S0_S0_S0_S0_P12CodeEmitInfo(ptr noundef nonnull align 8 dereferenceable(232) %0, i64 %.sroa.0.0.i, ptr noundef %15, i1 noundef zeroext %18, i64 %.sroa.07.0.copyload, i64 %.sroa.06.0.copyload, i64 %.sroa.05.0.copyload, i64 %.sroa.04.0.copyload, i64 %.sroa.03.0.copyload, ptr noundef %5) #9
  %19 = tail call i64 @_ZN12LIRGenerator12rlock_resultEP11Instruction(ptr noundef nonnull align 8 dereferenceable(232) %0, ptr noundef nonnull %1) #9
  %20 = getelementptr inbounds i8, ptr %0, i64 144
  %21 = load ptr, ptr %20, align 8
  tail call void @_ZN8LIR_List4moveE7LIR_OprS0_P12CodeEmitInfo(ptr noundef nonnull align 8 dereferenceable(32) %21, i64 %.sroa.0.0.i, i64 %19, ptr noundef null)
  ret void
}